(lp0
Vaggro
p1
aVallez
p2
aVanduin
p3
aVapm
p4
aVarmafra
p5
aVarmatars
p6
aVasian
p7
aVasmow
p8
aVatk
p9
aVaxe
p10
aVaya
p11
aVbarnes
p12
aVbcwarrior
p13
aVben
p14
aVblizz
p15
aVbloodlust
p16
aVbmkzzz
p17
aVbo
p18
aVbonemare
p19
aVboneyxboney
p20
aVbottomrightbuddy
p21
aVbrode
p22
aVbrokeback
p23
aVcanada
p24
aVcanadian
p25
aVcanadians
p26
aVchan
p27
aVchildrens
p28
aVcmonbruh
p29
aVcoachtwisted
p30
aVcomdreamhackmedia
p31
aVcommontrealsurvivalguide
p32
aVcora
p33
aVcounterspell
p34
aVcydonia
p35
aVdarrochbrown
p36
aVdecklist
p37
aVdecklists
p38
aVdk
p39
aVdogdogq
p40
aVdoomsayer
p41
aVdr
p42
aVdragonfire
p43
aVdreadss
p44
aVdreamhack
p45
aVdreamhackhs
p46
aVdreamhacklive
p47
aVdruidstone
p48
aVek
p49
aVekop
p50
aVenglish
p51
aVerico
p52
aVesport
p53
aVeventshearthstonegrandprixoverview
p54
aVexodia
p55
aVfailfish
p56
aVfalcone
p57
aVfandral
p58
aVfantasypower
p59
aVfarseer
p60
aVfirebat
p61
aVfrance
p62
aVfrench
p63
aVfrodan
p64
aVfrostbolt
p65
aVgeddon
p66
aVggtournamentdreamhackmontrealhearthstone
p67
aVgranteuro
p68
aVgrantusa
p69
aVgwent
p70
aVhabibi
p71
aVhassanchop
p72
aVhearthstonegrandprixen
p73
aVhentai
p74
aVhotmeowth
p75
aVhs
p76
aVhttpsgrandprix
p77
aVhttpssmash
p78
aVhttpstore
p79
aVhttpwww
p80
aViceblock
p81
aVindia
p82
aVinsom
p83
aVjarla
p84
aVjustsaiyanhs
p85
aVkazakus
p86
aVkibler
p87
aVkoncha
p88
aVkripp
p89
aVkrippo
p90
aVlhs
p91
aVlich
p92
aVlifecoach
p93
aVlorinda
p94
aVlyra
p95
aVmage
p96
aVmana
p97
aVmatchup
p98
aVmeowth
p99
aVmeowths
p100
aVmissplay
p101
aVmontreal
p102
aVmurloc
p103
aVmuzele
p104
aVmuzz
p105
aVmuzzgun
p106
aVmuzzw
p107
aVmuzzy
p108
aVmuzzyaposs
p109
aVmvp
p110
aVnaga
p111
aVnagacorsair
p112
aVnaxx
p113
aVnerf
p114
aVnesshsban
p115
aVnox
p116
aVnoxhype
p117
aVnoxius
p118
aVnoxultra
p119
aVnozdormu
p120
aVnushen
p121
aVopieop
p122
aVpavel
p123
aVphat
p124
aVpiwate
p125
aVpogchamphs
p126
aVprieststone
p127
aVpyro
p128
aVpyroblast
p129
aVquotlanguagequot
p130
aVravenhs
p131
aVraza
p132
aVrdid
p133
aVreynad
p134
aVrng
p135
aVrngstone
p136
aVseo
p137
aVseohyun
p138
aVshib
p139
aVsimplytoni
p140
aVsjow
p141
aVsjowbrokeback
p142
aVsjowe
p143
aVsjowfak
p144
aVskillstone
p145
aVsmorc
p146
aVsnapchat
p147
aVsnowlys
p148
aVsobayed
p149
aVsourpls
p150
aVsteinreich
p151
aVstormwatcher
p152
aVtakenrg
p153
aVtalkstone
p154
aVtearglove
p155
aVterrence
p156
aVthijs
p157
aVthrallmar
p158
aVthx
p159
aVtoastyc
p160
aVtoastydab
p161
aVtopdeck
p162
aVtopkek
p163
aVtrasaur
p164
aVtrihard
p165
aVtvdhatx
p166
aVui
p167
aVultrasaur
p168
aVusa
p169
aVvanqswisher
p170
aVvelen
p171
aVvisibile
p172
aVvods
p173
aVwarleader
p174
aVwersterstolemybike
p175
aVwindfury
p176
aVxus
p177
aVzalae
p178
aVzalaeduck
p179
aVzalaehs
p180
aVzalaerng
p181
a.