(lp0
Vaf
p1
aVamerica
p2
aVamerican
p3
aVangelthump
p4
aVbabyrage
p5
aVbiblethump
p6
aVblessrng
p7
aVbloodtrail
p8
aVbm
p9
aVboi
p10
aVbois
p11
aVbtw
p12
aVcanapost
p13
aVcarlsmile
p14
aVcigrip
p15
aVcoolstorybob
p16
aVcrreamawk
p17
aVdansgame
p18
aVdat
p19
aVdidnapost
p20
aVdidnt
p21
aVdmg
p22
aVdoesnapost
p23
aVdoesnt
p24
aVdonapost
p25
aVdont
p26
aVelegiggle
p27
aVentropywins
p28
aVesports
p29
aVeu
p30
aVez
p31
aVfeelsamazingman
p32
aVfeelsbadman
p33
aVfeelsbirthdayman
p34
aVfeelsgoodman
p35
aVffs
p36
aVforsen
p37
aVforsenomega
p38
aVftw
p39
aVgachigasm
p40
aVgameplay
p41
aVgg
p42
aVgiveplz
p43
aVgud
p44
aVhaha
p45
aVhahaa
p46
aVhahaha
p47
aVhahahaha
p48
aVheaposs
p49
aVheyguys
p50
aVhmm
p51
aVhotpokket
p52
aViaposd
p53
aViaposll
p54
aViaposm
p55
aViaposve
p56
aVim
p57
aVimglitch
p58
aVinuyoface
p59
aViq
p60
aVirc
p61
aVirma
p62
aVisnapost
p63
aVisnt
p64
aVitaposs
p65
aVjebaited
p66
aVjesus
p67
aVkappahd
p68
aVkappapride
p69
aVkeepo
p70
aVkevinturtle
p71
aVkkona
p72
aVkr
p73
aVkreygasm
p74
aVle
p75
aVletaposs
p76
aVlmao
p77
aVlmfao
p78
aVlol
p79
aVlt
p80
aVlul
p81
aVmeme
p82
aVmemes
p83
aVminglee
p84
aVmins
p85
aVmonkas
p86
aVmoobot
p87
aVmrdestructoid
p88
aVna
p89
aVnah
p90
aVnat
p91
aVnd
p92
aVnerfed
p93
aVnoob
p94
aVnooo
p95
aVnotlikethis
p96
aVohmydog
p97
aVok
p98
aVomegalul
p99
aVomg
p100
aVoo
p101
aVosfrog
p102
aVossloth
p103
aVoutskilled
p104
aVpjsalt
p105
aVpls
p106
aVplz
p107
aVpogchamp
p108
aVpowerupl
p109
aVpowerupr
p110
aVppl
p111
aVpunoko
p112
aVrekt
p113
aVresidentsleeper
p114
aVrofl
p115
aVseemsgood
p116
aVspam
p117
aVstfu
p118
aVswiftrage
p119
aVtehepelo
p120
aVthataposs
p121
aVtheilluminati
p122
aVthereaposs
p123
aVtheyaposre
p124
aVthicc
p125
aVtsm
p126
aVttours
p127
aVur
p128
aVvislaud
p129
aVvohiyo
p130
aVwasnapost
p131
aVweeb
p132
aVweebs
p133
aVwhataposs
p134
aVwhereaposs
p135
aVwtf
p136
aVwut
p137
aVwutface
p138
aVxd
p139
aVyouaposre
p140
aVyoutube
p141
a.